target datalayout = "e-m:e-p270:32:32-p271:32:32-p272:64:64-i64:64-i128:128-f80:128-n8:16:32:64-S128"
target triple = "x86_64-pc-linux-gnu"

%struct._object = type { %union.anon, ptr }
%union.anon = type { i64 }
%struct._typeobject = type { %struct.PyVarObject, ptr, i64, i64, ptr, i64, ptr, ptr, ptr, ptr, ptr, ptr, ptr, ptr, ptr, ptr, ptr, ptr, ptr, i64, ptr, ptr, ptr, ptr, i64, ptr, ptr, ptr, ptr, ptr, ptr, ptr, ptr, ptr, i64, ptr, ptr, ptr, ptr, ptr, ptr, ptr, ptr, ptr, ptr, ptr, i32, ptr, ptr, i8, i16 }
%struct.PyVarObject = type { %struct._object, i64 }
%struct.elementtreestate = type { ptr, ptr, ptr, ptr, ptr, ptr, ptr, ptr, ptr, ptr, ptr, ptr, ptr, ptr, ptr, ptr, ptr, ptr, ptr }
%struct.anon = type { i32, i32 }

@.str.2 = private unnamed_addr constant [15 x i8] c"_set_factories\00", align 1
@PyExc_TypeError = external global ptr, align 8
@_Py_NoneStruct = external global %struct._object, align 8
@.str.8 = private unnamed_addr constant [45 x i8] c"Comment factory must be callable, not %.100s\00", align 1
@.str.9 = private unnamed_addr constant [40 x i8] c"PI factory must be callable, not %.100s\00", align 1

; Function Attrs: alwaysinline nounwind uwtable
define internal void @Py_INCREF(ptr noundef %0) #4 {
  %2 = alloca ptr, align 8
  %3 = alloca i32, align 4
  %4 = alloca i32, align 4
  store ptr %0, ptr %2, align 8, !tbaa !3
  call void @llvm.lifetime.start.p0(i64 4, ptr %3) #8
  %5 = load ptr, ptr %2, align 8, !tbaa !3
  %6 = getelementptr inbounds nuw %struct._object, ptr %5, i32 0, i32 0
  %7 = getelementptr inbounds nuw %struct.anon, ptr %6, i32 0, i32 0
  %8 = load i32, ptr %7, align 8, !tbaa !32
  store i32 %8, ptr %3, align 4, !tbaa !13
  %9 = load i32, ptr %3, align 4, !tbaa !13
  %10 = icmp slt i32 %9, 0
  br i1 %10, label %11, label %12

11:                                               ; preds = %1
  store i32 1, ptr %4, align 4
  br label %18

12:                                               ; preds = %1
  %13 = load i32, ptr %3, align 4, !tbaa !13
  %14 = add i32 %13, 1
  %15 = load ptr, ptr %2, align 8, !tbaa !3
  %16 = getelementptr inbounds nuw %struct._object, ptr %15, i32 0, i32 0
  %17 = getelementptr inbounds nuw %struct.anon, ptr %16, i32 0, i32 0
  store i32 %14, ptr %17, align 8, !tbaa !32
  store i32 0, ptr %4, align 4
  br label %18

18:                                               ; preds = %12, %11
  call void @llvm.lifetime.end.p0(i64 4, ptr %3) #8
  %19 = load i32, ptr %4, align 4
  switch i32 %19, label %21 [
    i32 0, label %20
    i32 1, label %20
  ]

20:                                               ; preds = %18, %18
  ret void

21:                                               ; preds = %18
  unreachable
}

; Function Attrs: alwaysinline nounwind uwtable
define internal i32 @_Py_IsImmortal(ptr noundef %0) #4 {
  %2 = alloca ptr, align 8
  store ptr %0, ptr %2, align 8, !tbaa !3
  %3 = load ptr, ptr %2, align 8, !tbaa !3
  %4 = getelementptr inbounds nuw %struct._object, ptr %3, i32 0, i32 0
  %5 = getelementptr inbounds nuw %struct.anon, ptr %4, i32 0, i32 0
  %6 = load i32, ptr %5, align 8, !tbaa !32
  %7 = icmp slt i32 %6, 0
  %8 = zext i1 %7 to i32
  ret i32 %8
}

; Function Attrs: inlinehint nounwind uwtable
define internal void @Py_XDECREF(ptr noundef %0) #3 {
  %2 = alloca ptr, align 8
  store ptr %0, ptr %2, align 8, !tbaa !3
  %3 = load ptr, ptr %2, align 8, !tbaa !3
  %4 = icmp ne ptr %3, null
  br i1 %4, label %5, label %7

5:                                                ; preds = %1
  %6 = load ptr, ptr %2, align 8, !tbaa !3
  call void @Py_DECREF(ptr noundef %6)
  br label %7

7:                                                ; preds = %5, %1
  ret void
}

; Function Attrs: inlinehint nounwind uwtable
define internal ptr @_Py_NewRef(ptr noundef %0) #3 {
  %2 = alloca ptr, align 8
  store ptr %0, ptr %2, align 8, !tbaa !3
  %3 = load ptr, ptr %2, align 8, !tbaa !3
  call void @Py_INCREF(ptr noundef %3)
  %4 = load ptr, ptr %2, align 8, !tbaa !3
  ret ptr %4
}

; Function Attrs: alwaysinline nounwind uwtable
define internal void @Py_DECREF(ptr noundef %0) #4 {
  %2 = alloca ptr, align 8
  store ptr %0, ptr %2, align 8, !tbaa !3
  %3 = load ptr, ptr %2, align 8, !tbaa !3
  %4 = call i32 @_Py_IsImmortal(ptr noundef %3)
  %5 = icmp ne i32 %4, 0
  br i1 %5, label %6, label %7

6:                                                ; preds = %1
  br label %16

7:                                                ; preds = %1
  %8 = load ptr, ptr %2, align 8, !tbaa !3
  %9 = getelementptr inbounds nuw %struct._object, ptr %8, i32 0, i32 0
  %10 = getelementptr inbounds nuw %struct.anon, ptr %9, i32 0, i32 0
  %11 = load i32, ptr %10, align 8, !tbaa !32
  %12 = add i32 %11, -1
  store i32 %12, ptr %10, align 8, !tbaa !32
  %13 = icmp eq i32 %12, 0
  br i1 %13, label %14, label %16

14:                                               ; preds = %7
  %15 = load ptr, ptr %2, align 8, !tbaa !3
  call void @_Py_Dealloc(ptr noundef %15)
  br label %16

16:                                               ; preds = %6, %14, %7
  ret void
}

; Function Attrs: inlinehint nounwind uwtable
define internal ptr @_Py_TYPE(ptr noundef %0) #3 {
  %2 = alloca ptr, align 8
  store ptr %0, ptr %2, align 8, !tbaa !3
  %3 = load ptr, ptr %2, align 8, !tbaa !3
  %4 = getelementptr inbounds nuw %struct._object, ptr %3, i32 0, i32 1
  %5 = load ptr, ptr %4, align 8, !tbaa !52
  ret ptr %5
}

; Function Attrs: inlinehint nounwind uwtable
define internal ptr @get_elementtree_state(ptr noundef %0) #3 {
  %2 = alloca ptr, align 8
  %3 = alloca ptr, align 8
  store ptr %0, ptr %2, align 8, !tbaa !3
  call void @llvm.lifetime.start.p0(i64 8, ptr %3) #8
  %4 = load ptr, ptr %2, align 8, !tbaa !3
  %5 = call ptr @PyModule_GetState(ptr noundef %4)
  store ptr %5, ptr %3, align 8, !tbaa !8
  %6 = load ptr, ptr %3, align 8, !tbaa !8
  call void @llvm.lifetime.end.p0(i64 8, ptr %3) #8
  ret ptr %6
}

; Function Attrs: nounwind uwtable
define internal ptr @_elementtree__set_factories_impl(ptr noundef %0, ptr noundef %1, ptr noundef %2) #0 {
  %4 = alloca ptr, align 8
  %5 = alloca ptr, align 8
  %6 = alloca ptr, align 8
  %7 = alloca ptr, align 8
  %8 = alloca ptr, align 8
  %9 = alloca ptr, align 8
  %10 = alloca i32, align 4
  %11 = alloca ptr, align 8
  %12 = alloca ptr, align 8
  %13 = alloca ptr, align 8
  %14 = alloca ptr, align 8
  %15 = alloca ptr, align 8
  %16 = alloca ptr, align 8
  %17 = alloca ptr, align 8
  %18 = alloca ptr, align 8
  store ptr %0, ptr %5, align 8, !tbaa !3
  store ptr %1, ptr %6, align 8, !tbaa !3
  store ptr %2, ptr %7, align 8, !tbaa !3
  call void @llvm.lifetime.start.p0(i64 8, ptr %8) #8
  %19 = load ptr, ptr %5, align 8, !tbaa !3
  %20 = call ptr @get_elementtree_state(ptr noundef %19)
  store ptr %20, ptr %8, align 8, !tbaa !8
  call void @llvm.lifetime.start.p0(i64 8, ptr %9) #8
  %21 = load ptr, ptr %6, align 8, !tbaa !3
  %22 = call i32 @PyCallable_Check(ptr noundef %21)
  %23 = icmp ne i32 %22, 0
  br i1 %23, label %34, label %24

24:                                               ; preds = %3
  %25 = load ptr, ptr %6, align 8, !tbaa !3
  %26 = icmp ne ptr %25, @_Py_NoneStruct
  br i1 %26, label %27, label %34

27:                                               ; preds = %24
  %28 = load ptr, ptr @PyExc_TypeError, align 8, !tbaa !3
  %29 = load ptr, ptr %6, align 8, !tbaa !3
  %30 = call ptr @_Py_TYPE(ptr noundef %29)
  %31 = getelementptr inbounds nuw %struct._typeobject, ptr %30, i32 0, i32 1
  %32 = load ptr, ptr %31, align 8, !tbaa !33
  %33 = call ptr (ptr, ptr, ...) @PyErr_Format(ptr noundef %28, ptr noundef @.str.8, ptr noundef %32)
  store ptr null, ptr %4, align 8
  store i32 1, ptr %10, align 4
  br label %131

34:                                               ; preds = %24, %3
  %35 = load ptr, ptr %7, align 8, !tbaa !3
  %36 = call i32 @PyCallable_Check(ptr noundef %35)
  %37 = icmp ne i32 %36, 0
  br i1 %37, label %48, label %38

38:                                               ; preds = %34
  %39 = load ptr, ptr %7, align 8, !tbaa !3
  %40 = icmp ne ptr %39, @_Py_NoneStruct
  br i1 %40, label %41, label %48

41:                                               ; preds = %38
  %42 = load ptr, ptr @PyExc_TypeError, align 8, !tbaa !3
  %43 = load ptr, ptr %7, align 8, !tbaa !3
  %44 = call ptr @_Py_TYPE(ptr noundef %43)
  %45 = getelementptr inbounds nuw %struct._typeobject, ptr %44, i32 0, i32 1
  %46 = load ptr, ptr %45, align 8, !tbaa !33
  %47 = call ptr (ptr, ptr, ...) @PyErr_Format(ptr noundef %42, ptr noundef @.str.9, ptr noundef %46)
  store ptr null, ptr %4, align 8
  store i32 1, ptr %10, align 4
  br label %131

48:                                               ; preds = %38, %34
  %49 = load ptr, ptr %8, align 8, !tbaa !8
  %50 = getelementptr inbounds nuw %struct.elementtreestate, ptr %49, i32 0, i32 3
  %51 = load ptr, ptr %50, align 8, !tbaa !17
  %52 = icmp ne ptr %51, null
  br i1 %52, label %53, label %57

53:                                               ; preds = %48
  %54 = load ptr, ptr %8, align 8, !tbaa !8
  %55 = getelementptr inbounds nuw %struct.elementtreestate, ptr %54, i32 0, i32 3
  %56 = load ptr, ptr %55, align 8, !tbaa !17
  br label %58

57:                                               ; preds = %48
  br label %58

58:                                               ; preds = %57, %53
  %59 = phi ptr [ %56, %53 ], [ @_Py_NoneStruct, %57 ]
  %60 = load ptr, ptr %8, align 8, !tbaa !8
  %61 = getelementptr inbounds nuw %struct.elementtreestate, ptr %60, i32 0, i32 4
  %62 = load ptr, ptr %61, align 8, !tbaa !18
  %63 = icmp ne ptr %62, null
  br i1 %63, label %64, label %68

64:                                               ; preds = %58
  %65 = load ptr, ptr %8, align 8, !tbaa !8
  %66 = getelementptr inbounds nuw %struct.elementtreestate, ptr %65, i32 0, i32 4
  %67 = load ptr, ptr %66, align 8, !tbaa !18
  br label %69

68:                                               ; preds = %58
  br label %69

69:                                               ; preds = %68, %64
  %70 = phi ptr [ %67, %64 ], [ @_Py_NoneStruct, %68 ]
  %71 = call ptr (i64, ...) @PyTuple_Pack(i64 noundef 2, ptr noundef %59, ptr noundef %70)
  store ptr %71, ptr %9, align 8, !tbaa !3
  %72 = load ptr, ptr %6, align 8, !tbaa !3
  %73 = icmp eq ptr %72, @_Py_NoneStruct
  br i1 %73, label %74, label %88

74:                                               ; preds = %69
  br label %75

75:                                               ; preds = %74
  call void @llvm.lifetime.start.p0(i64 8, ptr %11) #8
  %76 = load ptr, ptr %8, align 8, !tbaa !8
  %77 = getelementptr inbounds nuw %struct.elementtreestate, ptr %76, i32 0, i32 3
  store ptr %77, ptr %11, align 8, !tbaa !24
  call void @llvm.lifetime.start.p0(i64 8, ptr %12) #8
  %78 = load ptr, ptr %11, align 8, !tbaa !24
  %79 = load ptr, ptr %78, align 8, !tbaa !3
  store ptr %79, ptr %12, align 8, !tbaa !3
  %80 = load ptr, ptr %12, align 8, !tbaa !3
  %81 = icmp ne ptr %80, null
  br i1 %81, label %82, label %85

82:                                               ; preds = %75
  %83 = load ptr, ptr %11, align 8, !tbaa !24
  store ptr null, ptr %83, align 8, !tbaa !3
  %84 = load ptr, ptr %12, align 8, !tbaa !3
  call void @Py_DECREF(ptr noundef %84)
  br label %85

85:                                               ; preds = %82, %75
  call void @llvm.lifetime.end.p0(i64 8, ptr %12) #8
  call void @llvm.lifetime.end.p0(i64 8, ptr %11) #8
  br label %86

86:                                               ; preds = %85
  br label %87

87:                                               ; preds = %86
  br label %100

88:                                               ; preds = %69
  br label %89

89:                                               ; preds = %88
  call void @llvm.lifetime.start.p0(i64 8, ptr %13) #8
  %90 = load ptr, ptr %8, align 8, !tbaa !8
  %91 = getelementptr inbounds nuw %struct.elementtreestate, ptr %90, i32 0, i32 3
  store ptr %91, ptr %13, align 8, !tbaa !24
  call void @llvm.lifetime.start.p0(i64 8, ptr %14) #8
  %92 = load ptr, ptr %13, align 8, !tbaa !24
  %93 = load ptr, ptr %92, align 8, !tbaa !3
  store ptr %93, ptr %14, align 8, !tbaa !3
  %94 = load ptr, ptr %6, align 8, !tbaa !3
  %95 = call ptr @_Py_NewRef(ptr noundef %94)
  %96 = load ptr, ptr %13, align 8, !tbaa !24
  store ptr %95, ptr %96, align 8, !tbaa !3
  %97 = load ptr, ptr %14, align 8, !tbaa !3
  call void @Py_XDECREF(ptr noundef %97)
  call void @llvm.lifetime.end.p0(i64 8, ptr %14) #8
  call void @llvm.lifetime.end.p0(i64 8, ptr %13) #8
  br label %98

98:                                               ; preds = %89
  br label %99

99:                                               ; preds = %98
  br label %100

100:                                              ; preds = %99, %87
  %101 = load ptr, ptr %7, align 8, !tbaa !3
  %102 = icmp eq ptr %101, @_Py_NoneStruct
  br i1 %102, label %103, label %117

103:                                              ; preds = %100
  br label %104

104:                                              ; preds = %103
  call void @llvm.lifetime.start.p0(i64 8, ptr %15) #8
  %105 = load ptr, ptr %8, align 8, !tbaa !8
  %106 = getelementptr inbounds nuw %struct.elementtreestate, ptr %105, i32 0, i32 4
  store ptr %106, ptr %15, align 8, !tbaa !24
  call void @llvm.lifetime.start.p0(i64 8, ptr %16) #8
  %107 = load ptr, ptr %15, align 8, !tbaa !24
  %108 = load ptr, ptr %107, align 8, !tbaa !3
  store ptr %108, ptr %16, align 8, !tbaa !3
  %109 = load ptr, ptr %16, align 8, !tbaa !3
  %110 = icmp ne ptr %109, null
  br i1 %110, label %111, label %114

111:                                              ; preds = %104
  %112 = load ptr, ptr %15, align 8, !tbaa !24
  store ptr null, ptr %112, align 8, !tbaa !3
  %113 = load ptr, ptr %16, align 8, !tbaa !3
  call void @Py_DECREF(ptr noundef %113)
  br label %114

114:                                              ; preds = %111, %104
  call void @llvm.lifetime.end.p0(i64 8, ptr %16) #8
  call void @llvm.lifetime.end.p0(i64 8, ptr %15) #8
  br label %115

115:                                              ; preds = %114
  br label %116

116:                                              ; preds = %115
  br label %129

117:                                              ; preds = %100
  br label %118

118:                                              ; preds = %117
  call void @llvm.lifetime.start.p0(i64 8, ptr %17) #8
  %119 = load ptr, ptr %8, align 8, !tbaa !8
  %120 = getelementptr inbounds nuw %struct.elementtreestate, ptr %119, i32 0, i32 4
  store ptr %120, ptr %17, align 8, !tbaa !24
  call void @llvm.lifetime.start.p0(i64 8, ptr %18) #8
  %121 = load ptr, ptr %17, align 8, !tbaa !24
  %122 = load ptr, ptr %121, align 8, !tbaa !3
  store ptr %122, ptr %18, align 8, !tbaa !3
  %123 = load ptr, ptr %7, align 8, !tbaa !3
  %124 = call ptr @_Py_NewRef(ptr noundef %123)
  %125 = load ptr, ptr %17, align 8, !tbaa !24
  store ptr %124, ptr %125, align 8, !tbaa !3
  %126 = load ptr, ptr %18, align 8, !tbaa !3
  call void @Py_XDECREF(ptr noundef %126)
  call void @llvm.lifetime.end.p0(i64 8, ptr %18) #8
  call void @llvm.lifetime.end.p0(i64 8, ptr %17) #8
  br label %127

127:                                              ; preds = %118
  br label %128

128:                                              ; preds = %127
  br label %129

129:                                              ; preds = %128, %116
  %130 = load ptr, ptr %9, align 8, !tbaa !3
  store ptr %130, ptr %4, align 8
  store i32 1, ptr %10, align 4
  br label %131

131:                                              ; preds = %129, %41, %27
  call void @llvm.lifetime.end.p0(i64 8, ptr %9) #8
  call void @llvm.lifetime.end.p0(i64 8, ptr %8) #8
  %132 = load ptr, ptr %4, align 8
  ret ptr %132
}

; Function Attrs: nounwind uwtable
define internal ptr @_elementtree__set_factories(ptr noundef %0, ptr noundef %1, i64 noundef %2) #0 {
  %4 = alloca ptr, align 8
  %5 = alloca ptr, align 8
  %6 = alloca i64, align 8
  %7 = alloca ptr, align 8
  %8 = alloca ptr, align 8
  %9 = alloca ptr, align 8
  store ptr %0, ptr %4, align 8, !tbaa !3
  store ptr %1, ptr %5, align 8, !tbaa !24
  store i64 %2, ptr %6, align 8, !tbaa !30
  call void @llvm.lifetime.start.p0(i64 8, ptr %7) #8
  store ptr null, ptr %7, align 8, !tbaa !3
  call void @llvm.lifetime.start.p0(i64 8, ptr %8) #8
  call void @llvm.lifetime.start.p0(i64 8, ptr %9) #8
  %10 = load i64, ptr %6, align 8, !tbaa !30
  %11 = icmp sle i64 2, %10
  br i1 %11, label %12, label %15

12:                                               ; preds = %3
  %13 = load i64, ptr %6, align 8, !tbaa !30
  %14 = icmp sle i64 %13, 2
  br i1 %14, label %20, label %15

15:                                               ; preds = %12, %3
  %16 = load i64, ptr %6, align 8, !tbaa !30
  %17 = call i32 @_PyArg_CheckPositional(ptr noundef @.str.2, i64 noundef %16, i64 noundef 2, i64 noundef 2)
  %18 = icmp ne i32 %17, 0
  br i1 %18, label %20, label %19

19:                                               ; preds = %15
  br label %31

20:                                               ; preds = %15, %12
  %21 = load ptr, ptr %5, align 8, !tbaa !24
  %22 = getelementptr ptr, ptr %21, i64 0
  %23 = load ptr, ptr %22, align 8, !tbaa !3
  store ptr %23, ptr %8, align 8, !tbaa !3
  %24 = load ptr, ptr %5, align 8, !tbaa !24
  %25 = getelementptr ptr, ptr %24, i64 1
  %26 = load ptr, ptr %25, align 8, !tbaa !3
  store ptr %26, ptr %9, align 8, !tbaa !3
  %27 = load ptr, ptr %4, align 8, !tbaa !3
  %28 = load ptr, ptr %8, align 8, !tbaa !3
  %29 = load ptr, ptr %9, align 8, !tbaa !3
  %30 = call ptr @_elementtree__set_factories_impl(ptr noundef %27, ptr noundef %28, ptr noundef %29)
  store ptr %30, ptr %7, align 8, !tbaa !3
  br label %31

31:                                               ; preds = %20, %19
  %32 = load ptr, ptr %7, align 8, !tbaa !3
  call void @llvm.lifetime.end.p0(i64 8, ptr %9) #8
  call void @llvm.lifetime.end.p0(i64 8, ptr %8) #8
  call void @llvm.lifetime.end.p0(i64 8, ptr %7) #8
  ret ptr %32
}