; Function Attrs: nounwind uwtable
define internal ptr @_elementtree__set_factories(ptr noundef %0, ptr noundef readonly captures(none) %1, i64 noundef %2) #0 {
  %or.cond = icmp eq i64 %2, 2
  br i1 %or.cond, label %6, label %4

4:                                                ; preds = %3
  %5 = tail call i32 @_PyArg_CheckPositional(ptr noundef nonnull @.str.2, i64 noundef %2, i64 noundef 2, i64 noundef 2) #12
  %.not = icmp eq i32 %5, 0
  br i1 %.not, label %_elementtree__set_factories_impl.exit, label %6

6:                                                ; preds = %3, %4
  %7 = load ptr, ptr %1, align 8, !tbaa !20
  %8 = getelementptr i8, ptr %1, i64 8
  %9 = load ptr, ptr %8, align 8, !tbaa !20
  %10 = tail call ptr @PyModule_GetState(ptr noundef %0) #12
  %11 = tail call i32 @PyCallable_Check(ptr noundef %7) #12
  %12 = icmp eq i32 %11, 0
  %13 = icmp ne ptr %7, @_Py_NoneStruct
  %or.cond.i = and i1 %13, %12
  br i1 %or.cond.i, label %14, label %20

14:                                               ; preds = %6
  %15 = load ptr, ptr @PyExc_TypeError, align 8, !tbaa !20
  %16 = getelementptr i8, ptr %7, i64 8
  %.val51.i = load ptr, ptr %16, align 8, !tbaa !25
  %17 = getelementptr inbounds nuw i8, ptr %.val51.i, i64 24
  %18 = load ptr, ptr %17, align 8, !tbaa !27
  %19 = tail call ptr (ptr, ptr, ...) @PyErr_Format(ptr noundef %15, ptr noundef nonnull @.str.8, ptr noundef %18) #12
  br label %_elementtree__set_factories_impl.exit

20:                                               ; preds = %6
  %21 = tail call i32 @PyCallable_Check(ptr noundef %9) #12
  %22 = icmp eq i32 %21, 0
  %23 = icmp ne ptr %9, @_Py_NoneStruct
  %or.cond3.i = and i1 %23, %22
  br i1 %or.cond3.i, label %24, label %30

24:                                               ; preds = %20
  %25 = load ptr, ptr @PyExc_TypeError, align 8, !tbaa !20
  %26 = getelementptr i8, ptr %9, i64 8
  %.val.i = load ptr, ptr %26, align 8, !tbaa !25
  %27 = getelementptr inbounds nuw i8, ptr %.val.i, i64 24
  %28 = load ptr, ptr %27, align 8, !tbaa !27
  %29 = tail call ptr (ptr, ptr, ...) @PyErr_Format(ptr noundef %25, ptr noundef nonnull @.str.9, ptr noundef %28) #12
  br label %_elementtree__set_factories_impl.exit

30:                                               ; preds = %20
  %31 = getelementptr inbounds nuw i8, ptr %10, i64 24
  %32 = load ptr, ptr %31, align 8, !tbaa !13
  %.not.i = icmp eq ptr %32, null
  %spec.select.i = select i1 %.not.i, ptr @_Py_NoneStruct, ptr %32
  %33 = getelementptr inbounds nuw i8, ptr %10, i64 32
  %34 = load ptr, ptr %33, align 8, !tbaa !14
  %.not45.i = icmp eq ptr %34, null
  %35 = select i1 %.not45.i, ptr @_Py_NoneStruct, ptr %34
  %36 = tail call ptr (i64, ...) @PyTuple_Pack(i64 noundef 2, ptr noundef nonnull %spec.select.i, ptr noundef nonnull %35) #12
  %37 = icmp eq ptr %7, @_Py_NoneStruct
  %38 = load ptr, ptr %31, align 8, !tbaa !20
  br i1 %37, label %39, label %45

39:                                               ; preds = %30
  %.not46.i = icmp eq ptr %38, null
  br i1 %.not46.i, label %Py_DECREF.exit49.i, label %40

40:                                               ; preds = %39
  store ptr null, ptr %31, align 8, !tbaa !20
  %41 = load i32, ptr %38, align 8, !tbaa !21
  %.not.i48.i = icmp sgt i32 %41, -1
  br i1 %.not.i48.i, label %42, label %Py_DECREF.exit49.i

42:                                               ; preds = %40
  %43 = add nsw i32 %41, -1
  store i32 %43, ptr %38, align 8, !tbaa !21
  %44 = icmp eq i32 %43, 0
  br i1 %44, label %Py_DECREF.exit49.sink.split.i, label %Py_DECREF.exit49.i

45:                                               ; preds = %30
  %46 = load i32, ptr %7, align 8, !tbaa !21
  %47 = icmp slt i32 %46, 0
  br i1 %47, label %_Py_NewRef.exit.i, label %48

48:                                               ; preds = %45
  %49 = add nuw i32 %46, 1
  store i32 %49, ptr %7, align 8, !tbaa !21
  br label %_Py_NewRef.exit.i

_Py_NewRef.exit.i:                                ; preds = %48, %45
  store ptr %7, ptr %31, align 8, !tbaa !20
  %.not.i52.i = icmp eq ptr %38, null
  br i1 %.not.i52.i, label %Py_DECREF.exit49.i, label %50

50:                                               ; preds = %_Py_NewRef.exit.i
  %51 = load i32, ptr %38, align 8, !tbaa !21
  %.not.i.i.i = icmp sgt i32 %51, -1
  br i1 %.not.i.i.i, label %52, label %Py_DECREF.exit49.i

52:                                               ; preds = %50
  %53 = add nsw i32 %51, -1
  store i32 %53, ptr %38, align 8, !tbaa !21
  %54 = icmp eq i32 %53, 0
  br i1 %54, label %Py_DECREF.exit49.sink.split.i, label %Py_DECREF.exit49.i

Py_DECREF.exit49.sink.split.i:                    ; preds = %52, %42
  tail call void @_Py_Dealloc(ptr noundef nonnull %38) #12
  br label %Py_DECREF.exit49.i

Py_DECREF.exit49.i:                               ; preds = %Py_DECREF.exit49.sink.split.i, %52, %50, %_Py_NewRef.exit.i, %42, %40, %39
  %55 = icmp eq ptr %9, @_Py_NoneStruct
  %56 = load ptr, ptr %33, align 8, !tbaa !20
  br i1 %55, label %57, label %64

57:                                               ; preds = %Py_DECREF.exit49.i
  %.not47.i = icmp eq ptr %56, null
  br i1 %.not47.i, label %_elementtree__set_factories_impl.exit, label %58

58:                                               ; preds = %57
  store ptr null, ptr %33, align 8, !tbaa !20
  %59 = load i32, ptr %56, align 8, !tbaa !21
  %.not.i.i = icmp sgt i32 %59, -1
  br i1 %.not.i.i, label %60, label %_elementtree__set_factories_impl.exit

60:                                               ; preds = %58
  %61 = add nsw i32 %59, -1
  store i32 %61, ptr %56, align 8, !tbaa !21
  %62 = icmp eq i32 %61, 0
  br i1 %62, label %63, label %_elementtree__set_factories_impl.exit

63:                                               ; preds = %60
  tail call void @_Py_Dealloc(ptr noundef nonnull %56) #12
  br label %_elementtree__set_factories_impl.exit

64:                                               ; preds = %Py_DECREF.exit49.i
  %65 = load i32, ptr %9, align 8, !tbaa !21
  %66 = icmp slt i32 %65, 0
  br i1 %66, label %_Py_NewRef.exit53.i, label %67

67:                                               ; preds = %64
  %68 = add nuw i32 %65, 1
  store i32 %68, ptr %9, align 8, !tbaa !21
  br label %_Py_NewRef.exit53.i

_Py_NewRef.exit53.i:                              ; preds = %67, %64
  store ptr %9, ptr %33, align 8, !tbaa !20
  %.not.i54.i = icmp eq ptr %56, null
  br i1 %.not.i54.i, label %_elementtree__set_factories_impl.exit, label %69

69:                                               ; preds = %_Py_NewRef.exit53.i
  %70 = load i32, ptr %56, align 8, !tbaa !21
  %.not.i.i55.i = icmp sgt i32 %70, -1
  br i1 %.not.i.i55.i, label %71, label %_elementtree__set_factories_impl.exit

71:                                               ; preds = %69
  %72 = add nsw i32 %70, -1
  store i32 %72, ptr %56, align 8, !tbaa !21
  %73 = icmp eq i32 %72, 0
  br i1 %73, label %74, label %_elementtree__set_factories_impl.exit

74:                                               ; preds = %71
  tail call void @_Py_Dealloc(ptr noundef nonnull %56) #12
  br label %_elementtree__set_factories_impl.exit

_elementtree__set_factories_impl.exit:            ; preds = %74, %71, %69, %_Py_NewRef.exit53.i, %63, %60, %58, %57, %24, %14, %4
  %.0 = phi ptr [ null, %4 ], [ null, %14 ], [ null, %24 ], [ %36, %57 ], [ %36, %58 ], [ %36, %60 ], [ %36, %63 ], [ %36, %_Py_NewRef.exit53.i ], [ %36, %69 ], [ %36, %71 ], [ %36, %74 ]
  ret ptr %.0
}